target datalayout = "e-m:e-p270:32:32-p271:32:32-p272:64:64-i64:64-i128:128-f80:128-n8:16:32:64-S128"
target triple = "x86_64-pc-linux-gnu"

%struct._object = type { %union.anon, ptr }
%union.anon = type { i64 }
%struct._PyOnceFlag = type { i8 }

@.str.11 = private unnamed_addr constant [49 x i8] c"../cpython/Modules/_testinternalcapi/test_lock.c\00", align 1
@_Py_NoneStruct = external global %struct._object, align 8
@.str.27 = private unnamed_addr constant [10 x i8] c"res == -1\00", align 1
@__PRETTY_FUNCTION__.test_lock_once = private unnamed_addr constant [49 x i8] c"PyObject *test_lock_once(PyObject *, PyObject *)\00", align 1
@.str.28 = private unnamed_addr constant [9 x i8] c"res == 0\00", align 1
@.str.29 = private unnamed_addr constant [13 x i8] c"counter == 5\00", align 1

; Function Attrs: inlinehint nounwind uwtable
define internal zeroext i8 @_Py_atomic_load_uint8(ptr noundef %0) #4 {
  %2 = alloca ptr, align 8
  %3 = alloca i8, align 1
  store ptr %0, ptr %2, align 8, !tbaa !41
  %4 = load ptr, ptr %2, align 8, !tbaa !41
  %5 = load atomic i8, ptr %4 seq_cst, align 1
  store i8 %5, ptr %3, align 1
  %6 = load i8, ptr %3, align 1, !tbaa !15
  ret i8 %6
}

; Function Attrs: inlinehint nounwind uwtable
define internal i32 @_PyOnceFlag_CallOnce(ptr noundef %0, ptr noundef %1, ptr noundef %2) #4 {
  %4 = alloca i32, align 4
  %5 = alloca ptr, align 8
  %6 = alloca ptr, align 8
  %7 = alloca ptr, align 8
  store ptr %0, ptr %5, align 8, !tbaa !47
  store ptr %1, ptr %6, align 8, !tbaa !47
  store ptr %2, ptr %7, align 8, !tbaa !47
  %8 = load ptr, ptr %5, align 8, !tbaa !47
  %9 = getelementptr inbounds nuw %struct._PyOnceFlag, ptr %8, i32 0, i32 0
  %10 = call zeroext i8 @_Py_atomic_load_uint8(ptr noundef %9)
  %11 = zext i8 %10 to i32
  %12 = icmp eq i32 %11, 4
  br i1 %12, label %13, label %14

13:                                               ; preds = %3
  store i32 0, ptr %4, align 4
  br label %19

14:                                               ; preds = %3
  %15 = load ptr, ptr %5, align 8, !tbaa !47
  %16 = load ptr, ptr %6, align 8, !tbaa !47
  %17 = load ptr, ptr %7, align 8, !tbaa !47
  %18 = call i32 @_PyOnceFlag_CallOnceSlow(ptr noundef %15, ptr noundef %16, ptr noundef %17)
  store i32 %18, ptr %4, align 4
  br label %19

19:                                               ; preds = %14, %13
  %20 = load i32, ptr %4, align 4
  ret i32 %20
}

; Function Attrs: nounwind uwtable
define internal ptr @test_lock_once(ptr noundef %0, ptr noundef %1) #0 {
  %3 = alloca ptr, align 8
  %4 = alloca ptr, align 8
  %5 = alloca %struct._PyOnceFlag, align 1
  %6 = alloca i32, align 4
  %7 = alloca i32, align 4
  %8 = alloca i32, align 4
  store ptr %0, ptr %3, align 8, !tbaa !3
  store ptr %1, ptr %4, align 8, !tbaa !3
  call void @llvm.lifetime.start.p0(i64 1, ptr %5) #8
  call void @llvm.memset.p0.i64(ptr align 1 %5, i8 0, i64 1, i1 false)
  call void @llvm.lifetime.start.p0(i64 4, ptr %6) #8
  store i32 0, ptr %6, align 4, !tbaa !14
  call void @llvm.lifetime.start.p0(i64 4, ptr %7) #8
  store i32 0, ptr %7, align 4, !tbaa !14
  br label %9

9:                                                ; preds = %38, %2
  %10 = load i32, ptr %7, align 4, !tbaa !14
  %11 = icmp slt i32 %10, 10
  br i1 %11, label %13, label %12

12:                                               ; preds = %9
  call void @llvm.lifetime.end.p0(i64 4, ptr %7) #8
  br label %41

13:                                               ; preds = %9
  call void @llvm.lifetime.start.p0(i64 4, ptr %8) #8
  %14 = call i32 @_PyOnceFlag_CallOnce(ptr noundef %5, ptr noundef @init_maybe_fail, ptr noundef %6)
  store i32 %14, ptr %8, align 4, !tbaa !14
  %15 = load i32, ptr %7, align 4, !tbaa !14
  %16 = icmp slt i32 %15, 4
  br i1 %16, label %17, label %24

17:                                               ; preds = %13
  %18 = load i32, ptr %8, align 4, !tbaa !14
  %19 = icmp eq i32 %18, -1
  br i1 %19, label %20, label %21

20:                                               ; preds = %17
  br label %23

21:                                               ; preds = %17
  call void @__assert_fail(ptr noundef @.str.27, ptr noundef @.str.11, i32 noundef 372, ptr noundef @__PRETTY_FUNCTION__.test_lock_once) #9
  unreachable

22:                                               ; No predecessors!
  br label %23

23:                                               ; preds = %22, %20
  br label %37

24:                                               ; preds = %13
  %25 = load i32, ptr %8, align 4, !tbaa !14
  %26 = icmp eq i32 %25, 0
  br i1 %26, label %27, label %28

27:                                               ; preds = %24
  br label %30

28:                                               ; preds = %24
  call void @__assert_fail(ptr noundef @.str.28, ptr noundef @.str.11, i32 noundef 375, ptr noundef @__PRETTY_FUNCTION__.test_lock_once) #9
  unreachable

29:                                               ; No predecessors!
  br label %30

30:                                               ; preds = %29, %27
  %31 = load i32, ptr %6, align 4, !tbaa !14
  %32 = icmp eq i32 %31, 5
  br i1 %32, label %33, label %34

33:                                               ; preds = %30
  br label %36

34:                                               ; preds = %30
  call void @__assert_fail(ptr noundef @.str.29, ptr noundef @.str.11, i32 noundef 376, ptr noundef @__PRETTY_FUNCTION__.test_lock_once) #9
  unreachable

35:                                               ; No predecessors!
  br label %36

36:                                               ; preds = %35, %33
  br label %37

37:                                               ; preds = %36, %23
  call void @llvm.lifetime.end.p0(i64 4, ptr %8) #8
  br label %38

38:                                               ; preds = %37
  %39 = load i32, ptr %7, align 4, !tbaa !14
  %40 = add i32 %39, 1
  store i32 %40, ptr %7, align 4, !tbaa !14
  br label %9, !llvm.loop !31

41:                                               ; preds = %12
  call void @llvm.lifetime.end.p0(i64 4, ptr %6) #8
  call void @llvm.lifetime.end.p0(i64 1, ptr %5) #8
  ret ptr @_Py_NoneStruct
}