; Function Attrs: nounwind uwtable
define internal noundef nonnull ptr @test_lock_once(ptr readnone captures(none) %0, ptr readnone captures(none) %1) #0 {
  %3 = alloca %struct._PyOnceFlag, align 1
  %4 = alloca i32, align 4
  call void @llvm.lifetime.start.p0(i64 1, ptr nonnull %3) #6
  store i8 0, ptr %3, align 1
  call void @llvm.lifetime.start.p0(i64 4, ptr nonnull %4) #6
  store i32 0, ptr %4, align 4, !tbaa !27
  br label %6

5:                                                ; preds = %20
  call void @llvm.lifetime.end.p0(i64 4, ptr nonnull %4) #6
  call void @llvm.lifetime.end.p0(i64 1, ptr nonnull %3) #6
  ret ptr @_Py_NoneStruct

6:                                                ; preds = %2, %20
  %.011 = phi i32 [ 0, %2 ], [ %21, %20 ]
  %7 = load atomic i8, ptr %3 seq_cst, align 1
  %8 = icmp eq i8 %7, 4
  br i1 %8, label %_PyOnceFlag_CallOnce.exit.thread, label %_PyOnceFlag_CallOnce.exit

_PyOnceFlag_CallOnce.exit:                        ; preds = %6
  %9 = call i32 @_PyOnceFlag_CallOnceSlow(ptr noundef nonnull %3, ptr noundef nonnull @init_maybe_fail, ptr noundef nonnull %4) #6
  %10 = icmp samesign ult i32 %.011, 4
  br i1 %10, label %12, label %14

_PyOnceFlag_CallOnce.exit.thread:                 ; preds = %6
  %11 = icmp samesign ult i32 %.011, 4
  br i1 %11, label %.thread, label %.thread9

12:                                               ; preds = %_PyOnceFlag_CallOnce.exit
  %13 = icmp eq i32 %9, -1
  br i1 %13, label %20, label %.thread

.thread:                                          ; preds = %_PyOnceFlag_CallOnce.exit.thread, %12
  call void @__assert_fail(ptr noundef nonnull @.str.27, ptr noundef nonnull @.str.11, i32 noundef 372, ptr noundef nonnull @__PRETTY_FUNCTION__.test_lock_once) #7
  unreachable

14:                                               ; preds = %_PyOnceFlag_CallOnce.exit
  %15 = icmp eq i32 %9, 0
  br i1 %15, label %.thread9, label %16

16:                                               ; preds = %14
  call void @__assert_fail(ptr noundef nonnull @.str.28, ptr noundef nonnull @.str.11, i32 noundef 375, ptr noundef nonnull @__PRETTY_FUNCTION__.test_lock_once) #7
  unreachable

.thread9:                                         ; preds = %_PyOnceFlag_CallOnce.exit.thread, %14
  %17 = load i32, ptr %4, align 4, !tbaa !27
  %18 = icmp eq i32 %17, 5
  br i1 %18, label %20, label %19

19:                                               ; preds = %.thread9
  call void @__assert_fail(ptr noundef nonnull @.str.29, ptr noundef nonnull @.str.11, i32 noundef 376, ptr noundef nonnull @__PRETTY_FUNCTION__.test_lock_once) #7
  unreachable

20:                                               ; preds = %.thread9, %12
  %21 = add nuw nsw i32 %.011, 1
  %exitcond.not = icmp eq i32 %21, 10
  br i1 %exitcond.not, label %5, label %6, !llvm.loop !28
}